target datalayout = "e-m:e-p270:32:32-p271:32:32-p272:64:64-i64:64-i128:128-f80:128-n8:16:32:64-S128"
target triple = "x86_64-pc-linux-gnu"

%struct.fdt_header = type { i32, i32, i32, i32, i32, i32, i32, i32, i32, i32 }
%struct.fdt_property = type { i32, i32, i32, [0 x i8] }

; Function Attrs: inlinehint nounwind uwtable
define internal i32 @cpu_to_fdt32(i32 noundef %0) #2 {
  %2 = alloca i32, align 4
  store i32 %0, ptr %2, align 4, !tbaa !9
  %3 = getelementptr inbounds i8, ptr %2, i64 0
  %4 = load i8, ptr %3, align 4, !tbaa !16
  %5 = zext i8 %4 to i64
  %6 = shl i64 %5, 24
  %7 = getelementptr inbounds i8, ptr %2, i64 1
  %8 = load i8, ptr %7, align 1, !tbaa !16
  %9 = zext i8 %8 to i64
  %10 = shl i64 %9, 16
  %11 = or i64 %6, %10
  %12 = getelementptr inbounds i8, ptr %2, i64 2
  %13 = load i8, ptr %12, align 2, !tbaa !16
  %14 = zext i8 %13 to i64
  %15 = shl i64 %14, 8
  %16 = or i64 %11, %15
  %17 = getelementptr inbounds i8, ptr %2, i64 3
  %18 = load i8, ptr %17, align 1, !tbaa !16
  %19 = zext i8 %18 to i64
  %20 = or i64 %16, %19
  %21 = trunc i64 %20 to i32
  ret i32 %21
}

; Function Attrs: inlinehint nounwind uwtable
define internal ptr @fdt_get_property_w(ptr noundef %0, i32 noundef %1, ptr noundef %2, ptr noundef %3) #2 {
  %5 = alloca ptr, align 8
  %6 = alloca i32, align 4
  %7 = alloca ptr, align 8
  %8 = alloca ptr, align 8
  store ptr %0, ptr %5, align 8, !tbaa !3
  store i32 %1, ptr %6, align 4, !tbaa !9
  store ptr %2, ptr %7, align 8, !tbaa !17
  store ptr %3, ptr %8, align 8, !tbaa !27
  %9 = load ptr, ptr %5, align 8, !tbaa !3
  %10 = load i32, ptr %6, align 4, !tbaa !9
  %11 = load ptr, ptr %7, align 8, !tbaa !17
  %12 = load ptr, ptr %8, align 8, !tbaa !27
  %13 = call ptr @fdt_get_property(ptr noundef %9, i32 noundef %10, ptr noundef %11, ptr noundef %12)
  %14 = ptrtoint ptr %13 to i64
  %15 = inttoptr i64 %14 to ptr
  ret ptr %15
}

; Function Attrs: inlinehint nounwind uwtable
define internal void @fdt_set_version(ptr noundef %0, i32 noundef %1) #2 {
  %3 = alloca ptr, align 8
  %4 = alloca i32, align 4
  %5 = alloca ptr, align 8
  store ptr %0, ptr %3, align 8, !tbaa !3
  store i32 %1, ptr %4, align 4, !tbaa !9
  call void @llvm.lifetime.start.p0(i64 8, ptr %5) #7
  %6 = load ptr, ptr %3, align 8, !tbaa !3
  store ptr %6, ptr %5, align 8, !tbaa !36
  %7 = load i32, ptr %4, align 4, !tbaa !9
  %8 = call i32 @cpu_to_fdt32(i32 noundef %7)
  %9 = load ptr, ptr %5, align 8, !tbaa !36
  %10 = getelementptr inbounds nuw %struct.fdt_header, ptr %9, i32 0, i32 5
  store i32 %8, ptr %10, align 4, !tbaa !38
  call void @llvm.lifetime.end.p0(i64 8, ptr %5) #7
  ret void
}

; Function Attrs: inlinehint nounwind uwtable
define internal i32 @fdt32_ld(ptr noundef %0) #2 {
  %2 = alloca ptr, align 8
  %3 = alloca ptr, align 8
  store ptr %0, ptr %2, align 8, !tbaa !27
  call void @llvm.lifetime.start.p0(i64 8, ptr %3) #7
  %4 = load ptr, ptr %2, align 8, !tbaa !27
  store ptr %4, ptr %3, align 8, !tbaa !17
  %5 = load ptr, ptr %3, align 8, !tbaa !17
  %6 = getelementptr inbounds i8, ptr %5, i64 0
  %7 = load i8, ptr %6, align 1, !tbaa !16
  %8 = zext i8 %7 to i32
  %9 = shl i32 %8, 24
  %10 = load ptr, ptr %3, align 8, !tbaa !17
  %11 = getelementptr inbounds i8, ptr %10, i64 1
  %12 = load i8, ptr %11, align 1, !tbaa !16
  %13 = zext i8 %12 to i32
  %14 = shl i32 %13, 16
  %15 = or i32 %9, %14
  %16 = load ptr, ptr %3, align 8, !tbaa !17
  %17 = getelementptr inbounds i8, ptr %16, i64 2
  %18 = load i8, ptr %17, align 1, !tbaa !16
  %19 = zext i8 %18 to i32
  %20 = shl i32 %19, 8
  %21 = or i32 %15, %20
  %22 = load ptr, ptr %3, align 8, !tbaa !17
  %23 = getelementptr inbounds i8, ptr %22, i64 3
  %24 = load i8, ptr %23, align 1, !tbaa !16
  %25 = zext i8 %24 to i32
  %26 = or i32 %21, %25
  call void @llvm.lifetime.end.p0(i64 8, ptr %3) #7
  ret i32 %26
}

; Function Attrs: nounwind uwtable
define internal i32 @fdt_resize_property_(ptr noundef %0, i32 noundef %1, ptr noundef %2, i32 noundef %3, ptr noundef %4) #0 {
  %6 = alloca i32, align 4
  %7 = alloca ptr, align 8
  %8 = alloca i32, align 4
  %9 = alloca ptr, align 8
  %10 = alloca i32, align 4
  %11 = alloca ptr, align 8
  %12 = alloca i32, align 4
  %13 = alloca i32, align 4
  %14 = alloca i32, align 4
  store ptr %0, ptr %7, align 8, !tbaa !3
  store i32 %1, ptr %8, align 4, !tbaa !9
  store ptr %2, ptr %9, align 8, !tbaa !17
  store i32 %3, ptr %10, align 4, !tbaa !9
  store ptr %4, ptr %11, align 8, !tbaa !21
  call void @llvm.lifetime.start.p0(i64 4, ptr %12) #7
  call void @llvm.lifetime.start.p0(i64 4, ptr %13) #7
  %15 = load ptr, ptr %7, align 8, !tbaa !3
  %16 = load i32, ptr %8, align 4, !tbaa !9
  %17 = load ptr, ptr %9, align 8, !tbaa !17
  %18 = call ptr @fdt_get_property_w(ptr noundef %15, i32 noundef %16, ptr noundef %17, ptr noundef %12)
  %19 = load ptr, ptr %11, align 8, !tbaa !21
  store ptr %18, ptr %19, align 8, !tbaa !19
  %20 = load ptr, ptr %11, align 8, !tbaa !21
  %21 = load ptr, ptr %20, align 8, !tbaa !19
  %22 = icmp ne ptr %21, null
  br i1 %22, label %25, label %23

23:                                               ; preds = %5
  %24 = load i32, ptr %12, align 4, !tbaa !9
  store i32 %24, ptr %6, align 4
  store i32 1, ptr %14, align 4
  br label %53

25:                                               ; preds = %5
  %26 = load ptr, ptr %7, align 8, !tbaa !3
  %27 = load ptr, ptr %11, align 8, !tbaa !21
  %28 = load ptr, ptr %27, align 8, !tbaa !19
  %29 = getelementptr inbounds nuw %struct.fdt_property, ptr %28, i32 0, i32 3
  %30 = getelementptr inbounds [0 x i8], ptr %29, i64 0, i64 0
  %31 = load i32, ptr %12, align 4, !tbaa !9
  %32 = sext i32 %31 to i64
  %33 = add i64 %32, 4
  %34 = sub i64 %33, 1
  %35 = and i64 %34, -4
  %36 = trunc i64 %35 to i32
  %37 = load i32, ptr %10, align 4, !tbaa !9
  %38 = sext i32 %37 to i64
  %39 = add i64 %38, 4
  %40 = sub i64 %39, 1
  %41 = and i64 %40, -4
  %42 = trunc i64 %41 to i32
  %43 = call i32 @fdt_splice_struct_(ptr noundef %26, ptr noundef %30, i32 noundef %36, i32 noundef %42)
  store i32 %43, ptr %13, align 4, !tbaa !9
  %44 = icmp ne i32 %43, 0
  br i1 %44, label %45, label %47

45:                                               ; preds = %25
  %46 = load i32, ptr %13, align 4, !tbaa !9
  store i32 %46, ptr %6, align 4
  store i32 1, ptr %14, align 4
  br label %53

47:                                               ; preds = %25
  %48 = load i32, ptr %10, align 4, !tbaa !9
  %49 = call i32 @cpu_to_fdt32(i32 noundef %48)
  %50 = load ptr, ptr %11, align 8, !tbaa !21
  %51 = load ptr, ptr %50, align 8, !tbaa !19
  %52 = getelementptr inbounds nuw %struct.fdt_property, ptr %51, i32 0, i32 1
  store i32 %49, ptr %52, align 4, !tbaa !23
  store i32 0, ptr %6, align 4
  store i32 1, ptr %14, align 4
  br label %53

53:                                               ; preds = %47, %45, %23
  call void @llvm.lifetime.end.p0(i64 4, ptr %13) #7
  call void @llvm.lifetime.end.p0(i64 4, ptr %12) #7
  %54 = load i32, ptr %6, align 4
  ret i32 %54
}

; Function Attrs: nounwind uwtable
define internal i32 @fdt_rw_probe_(ptr noundef %0) #0 {
  %2 = alloca i32, align 4
  %3 = alloca ptr, align 8
  %4 = alloca i32, align 4
  %5 = alloca i32, align 4
  store ptr %0, ptr %3, align 8, !tbaa !3
  call void @llvm.lifetime.start.p0(i64 4, ptr %4) #7
  %6 = load ptr, ptr %3, align 8, !tbaa !3
  %7 = call i32 @fdt_ro_probe_(ptr noundef %6)
  store i32 %7, ptr %4, align 4, !tbaa !9
  %8 = icmp slt i32 %7, 0
  br i1 %8, label %9, label %11

9:                                                ; preds = %1
  %10 = load i32, ptr %4, align 4, !tbaa !9
  store i32 %10, ptr %2, align 4
  store i32 1, ptr %5, align 4
  br label %12

11:                                               ; preds = %1
  store i32 0, ptr %5, align 4
  br label %12

12:                                               ; preds = %11, %9
  call void @llvm.lifetime.end.p0(i64 4, ptr %4) #7
  %13 = load i32, ptr %5, align 4
  switch i32 %13, label %38 [
    i32 0, label %14
    i32 1, label %36
  ]

14:                                               ; preds = %12
  %15 = load ptr, ptr %3, align 8, !tbaa !3
  %16 = getelementptr inbounds nuw %struct.fdt_header, ptr %15, i32 0, i32 5
  %17 = call i32 @fdt32_ld(ptr noundef %16)
  %18 = icmp ult i32 %17, 17
  br i1 %18, label %19, label %20

19:                                               ; preds = %14
  store i32 -10, ptr %2, align 4
  br label %36

20:                                               ; preds = %14
  %21 = load ptr, ptr %3, align 8, !tbaa !3
  %22 = load ptr, ptr %3, align 8, !tbaa !3
  %23 = getelementptr inbounds nuw %struct.fdt_header, ptr %22, i32 0, i32 9
  %24 = call i32 @fdt32_ld(ptr noundef %23)
  %25 = call i32 @fdt_blocks_misordered_(ptr noundef %21, i32 noundef 16, i32 noundef %24)
  %26 = icmp ne i32 %25, 0
  br i1 %26, label %27, label %28

27:                                               ; preds = %20
  store i32 -12, ptr %2, align 4
  br label %36

28:                                               ; preds = %20
  %29 = load ptr, ptr %3, align 8, !tbaa !3
  %30 = getelementptr inbounds nuw %struct.fdt_header, ptr %29, i32 0, i32 5
  %31 = call i32 @fdt32_ld(ptr noundef %30)
  %32 = icmp ugt i32 %31, 17
  br i1 %32, label %33, label %35

33:                                               ; preds = %28
  %34 = load ptr, ptr %3, align 8, !tbaa !3
  call void @fdt_set_version(ptr noundef %34, i32 noundef 17)
  br label %35

35:                                               ; preds = %33, %28
  store i32 0, ptr %2, align 4
  br label %36

36:                                               ; preds = %35, %27, %19, %12
  %37 = load i32, ptr %2, align 4
  ret i32 %37

38:                                               ; preds = %12
  unreachable
}

; Function Attrs: nounwind uwtable
define i32 @fdt_setprop_placeholder(ptr noundef %0, i32 noundef %1, ptr noundef %2, i32 noundef %3, ptr noundef %4) #0 {
  %6 = alloca i32, align 4
  %7 = alloca ptr, align 8
  %8 = alloca i32, align 4
  %9 = alloca ptr, align 8
  %10 = alloca i32, align 4
  %11 = alloca ptr, align 8
  %12 = alloca ptr, align 8
  %13 = alloca i32, align 4
  %14 = alloca i32, align 4
  %15 = alloca i32, align 4
  store ptr %0, ptr %7, align 8, !tbaa !3
  store i32 %1, ptr %8, align 4, !tbaa !9
  store ptr %2, ptr %9, align 8, !tbaa !17
  store i32 %3, ptr %10, align 4, !tbaa !9
  store ptr %4, ptr %11, align 8, !tbaa !3
  call void @llvm.lifetime.start.p0(i64 8, ptr %12) #7
  call void @llvm.lifetime.start.p0(i64 4, ptr %13) #7
  call void @llvm.lifetime.start.p0(i64 4, ptr %14) #7
  %16 = load ptr, ptr %7, align 8, !tbaa !3
  %17 = call i32 @fdt_rw_probe_(ptr noundef %16)
  store i32 %17, ptr %14, align 4, !tbaa !9
  %18 = icmp ne i32 %17, 0
  br i1 %18, label %19, label %21

19:                                               ; preds = %5
  %20 = load i32, ptr %14, align 4, !tbaa !9
  store i32 %20, ptr %6, align 4
  store i32 1, ptr %15, align 4
  br label %22

21:                                               ; preds = %5
  store i32 0, ptr %15, align 4
  br label %22

22:                                               ; preds = %21, %19
  call void @llvm.lifetime.end.p0(i64 4, ptr %14) #7
  %23 = load i32, ptr %15, align 4
  switch i32 %23, label %48 [
    i32 0, label %24
  ]

24:                                               ; preds = %22
  %25 = load ptr, ptr %7, align 8, !tbaa !3
  %26 = load i32, ptr %8, align 4, !tbaa !9
  %27 = load ptr, ptr %9, align 8, !tbaa !17
  %28 = load i32, ptr %10, align 4, !tbaa !9
  %29 = call i32 @fdt_resize_property_(ptr noundef %25, i32 noundef %26, ptr noundef %27, i32 noundef %28, ptr noundef %12)
  store i32 %29, ptr %13, align 4, !tbaa !9
  %30 = load i32, ptr %13, align 4, !tbaa !9
  %31 = icmp eq i32 %30, -1
  br i1 %31, label %32, label %38

32:                                               ; preds = %24
  %33 = load ptr, ptr %7, align 8, !tbaa !3
  %34 = load i32, ptr %8, align 4, !tbaa !9
  %35 = load ptr, ptr %9, align 8, !tbaa !17
  %36 = load i32, ptr %10, align 4, !tbaa !9
  %37 = call i32 @fdt_add_property_(ptr noundef %33, i32 noundef %34, ptr noundef %35, i32 noundef %36, ptr noundef %12)
  store i32 %37, ptr %13, align 4, !tbaa !9
  br label %38

38:                                               ; preds = %32, %24
  %39 = load i32, ptr %13, align 4, !tbaa !9
  %40 = icmp ne i32 %39, 0
  br i1 %40, label %41, label %43

41:                                               ; preds = %38
  %42 = load i32, ptr %13, align 4, !tbaa !9
  store i32 %42, ptr %6, align 4
  store i32 1, ptr %15, align 4
  br label %48

43:                                               ; preds = %38
  %44 = load ptr, ptr %12, align 8, !tbaa !19
  %45 = getelementptr inbounds nuw %struct.fdt_property, ptr %44, i32 0, i32 3
  %46 = getelementptr inbounds [0 x i8], ptr %45, i64 0, i64 0
  %47 = load ptr, ptr %11, align 8, !tbaa !3
  store ptr %46, ptr %47, align 8, !tbaa !3
  store i32 0, ptr %6, align 4
  store i32 1, ptr %15, align 4
  br label %48

48:                                               ; preds = %43, %41, %22
  call void @llvm.lifetime.end.p0(i64 4, ptr %13) #7
  call void @llvm.lifetime.end.p0(i64 8, ptr %12) #7
  %49 = load i32, ptr %6, align 4
  ret i32 %49
}