; Function Attrs: nounwind uwtable
define i32 @fdt_setprop_placeholder(ptr noundef %0, i32 noundef %1, ptr noundef %2, i32 noundef %3, ptr noundef writeonly captures(none) %4) local_unnamed_addr #0 {
  %6 = alloca i32, align 4
  %7 = alloca ptr, align 8
  call void @llvm.lifetime.start.p0(i64 8, ptr nonnull %7) #9
  %8 = tail call i32 @fdt_ro_probe_(ptr noundef %0) #9
  %9 = icmp sgt i32 %8, -1
  br i1 %9, label %10, label %fdt_rw_probe_.exit.thread

10:                                               ; preds = %5
  %11 = getelementptr inbounds nuw i8, ptr %0, i64 20
  %12 = load i8, ptr %11, align 1, !tbaa !3
  %13 = zext i8 %12 to i32
  %14 = shl nuw i32 %13, 24
  %15 = getelementptr inbounds nuw i8, ptr %0, i64 21
  %16 = load i8, ptr %15, align 1, !tbaa !3
  %17 = zext i8 %16 to i32
  %18 = shl nuw nsw i32 %17, 16
  %19 = or disjoint i32 %18, %14
  %20 = getelementptr inbounds nuw i8, ptr %0, i64 22
  %21 = load i8, ptr %20, align 1, !tbaa !3
  %22 = zext i8 %21 to i32
  %23 = shl nuw nsw i32 %22, 8
  %24 = or disjoint i32 %19, %23
  %25 = getelementptr inbounds nuw i8, ptr %0, i64 23
  %26 = load i8, ptr %25, align 1, !tbaa !3
  %27 = zext i8 %26 to i32
  %28 = or disjoint i32 %24, %27
  %29 = icmp ult i32 %28, 17
  br i1 %29, label %fdt_rw_probe_.exit.thread, label %30

30:                                               ; preds = %10
  %31 = getelementptr inbounds nuw i8, ptr %0, i64 36
  %32 = load i8, ptr %31, align 1, !tbaa !3
  %33 = zext i8 %32 to i32
  %34 = shl nuw i32 %33, 24
  %35 = getelementptr inbounds nuw i8, ptr %0, i64 37
  %36 = load i8, ptr %35, align 1, !tbaa !3
  %37 = zext i8 %36 to i32
  %38 = shl nuw nsw i32 %37, 16
  %39 = or disjoint i32 %38, %34
  %40 = getelementptr inbounds nuw i8, ptr %0, i64 38
  %41 = load i8, ptr %40, align 1, !tbaa !3
  %42 = zext i8 %41 to i32
  %43 = shl nuw nsw i32 %42, 8
  %44 = or disjoint i32 %39, %43
  %45 = getelementptr inbounds nuw i8, ptr %0, i64 39
  %46 = load i8, ptr %45, align 1, !tbaa !3
  %47 = zext i8 %46 to i32
  %48 = or disjoint i32 %44, %47
  %49 = tail call fastcc i32 @fdt_blocks_misordered_(ptr noundef nonnull %0, i32 noundef 16, i32 noundef %48)
  %.not.i = icmp eq i32 %49, 0
  br i1 %.not.i, label %50, label %fdt_rw_probe_.exit.thread

50:                                               ; preds = %30
  %.not9.i = icmp eq i32 %28, 17
  br i1 %.not9.i, label %fdt_rw_probe_.exit, label %51

51:                                               ; preds = %50
  store i32 285212672, ptr %11, align 4, !tbaa !6
  br label %fdt_rw_probe_.exit

fdt_rw_probe_.exit:                               ; preds = %51, %50
  call void @llvm.lifetime.start.p0(i64 4, ptr nonnull %6) #9
  %52 = call ptr @fdt_get_property(ptr noundef nonnull %0, i32 noundef %1, ptr noundef %2, ptr noundef nonnull %6) #9
  store ptr %52, ptr %7, align 8, !tbaa !17
  %.not.i19 = icmp eq ptr %52, null
  br i1 %.not.i19, label %53, label %55

53:                                               ; preds = %fdt_rw_probe_.exit
  %54 = load i32, ptr %6, align 4, !tbaa !15
  br label %fdt_resize_property_.exit

55:                                               ; preds = %fdt_rw_probe_.exit
  %56 = getelementptr inbounds nuw i8, ptr %52, i64 12
  %57 = load i32, ptr %6, align 4, !tbaa !15
  %58 = add i32 %57, 3
  %59 = and i32 %58, -4
  %60 = add i32 %3, 3
  %61 = and i32 %60, -4
  %62 = call fastcc i32 @fdt_splice_struct_(ptr noundef nonnull %0, ptr noundef nonnull %56, i32 noundef %59, i32 noundef %61)
  %.not13.i = icmp eq i32 %62, 0
  br i1 %.not13.i, label %.thread, label %fdt_resize_property_.exit

.thread:                                          ; preds = %55
  %rev.i.i = call noundef i32 @llvm.bswap.i32(i32 %3)
  %63 = getelementptr inbounds nuw i8, ptr %52, i64 4
  store i32 %rev.i.i, ptr %63, align 4, !tbaa !20
  call void @llvm.lifetime.end.p0(i64 4, ptr nonnull %6) #9
  br label %68

fdt_resize_property_.exit:                        ; preds = %53, %55
  %.0.i = phi i32 [ %54, %53 ], [ %62, %55 ]
  call void @llvm.lifetime.end.p0(i64 4, ptr nonnull %6) #9
  %64 = icmp eq i32 %.0.i, -1
  br i1 %64, label %65, label %67

65:                                               ; preds = %fdt_resize_property_.exit
  %66 = call fastcc i32 @fdt_add_property_(ptr noundef nonnull %0, i32 noundef %1, ptr noundef %2, i32 noundef %3, ptr noundef %7)
  br label %67

67:                                               ; preds = %65, %fdt_resize_property_.exit
  %.016 = phi i32 [ %66, %65 ], [ %.0.i, %fdt_resize_property_.exit ]
  %.not18 = icmp eq i32 %.016, 0
  br i1 %.not18, label %._crit_edge, label %fdt_rw_probe_.exit.thread

._crit_edge:                                      ; preds = %67
  %.pre = load ptr, ptr %7, align 8, !tbaa !17
  br label %68

68:                                               ; preds = %._crit_edge, %.thread
  %69 = phi ptr [ %.pre, %._crit_edge ], [ %52, %.thread ]
  %70 = getelementptr inbounds nuw i8, ptr %69, i64 12
  store ptr %70, ptr %4, align 8, !tbaa !22
  br label %fdt_rw_probe_.exit.thread

fdt_rw_probe_.exit.thread:                        ; preds = %30, %10, %5, %67, %68
  %.1 = phi i32 [ 0, %68 ], [ %.016, %67 ], [ -12, %30 ], [ -10, %10 ], [ %8, %5 ]
  call void @llvm.lifetime.end.p0(i64 8, ptr nonnull %7) #9
  ret i32 %.1
}